; Function Attrs: nounwind sspstrong uwtable
define internal range(i64 1, 0) i64 @snprintf_count(i64 %0, i64 noundef %1) #0 {
  %3 = alloca i64, align 8
  store i64 %1, ptr %3, align 8, !tbaa !11
  %4 = call ptr @rb_string_value_cstr(ptr noundef nonnull %3) #6
  %5 = call i32 (ptr, i64, ptr, ...) @ruby_snprintf(ptr noundef null, i64 noundef 0, ptr noundef nonnull @.str.26, ptr noundef %4) #6
  %6 = sext i32 %5 to i64
  %7 = shl nsw i64 %6, 1
  %8 = or disjoint i64 %7, 1
  ret i64 %8
}